target datalayout = "e-m:e-p270:32:32-p271:32:32-p272:64:64-i64:64-i128:128-f80:128-n8:16:32:64-S128"
target triple = "x86_64-unknown-linux-gnu"

%"class.QuantLib::Date" = type { i64 }
%"class.QuantLib::NotionalPath" = type { %"class.std::vector" }
%"class.std::vector" = type { %"struct.std::_Vector_base" }
%"struct.std::_Vector_base" = type { %"struct.std::_Vector_base<std::pair<QuantLib::Date, double>, std::allocator<std::pair<QuantLib::Date, double>>>::_Vector_impl" }
%"struct.std::_Vector_base<std::pair<QuantLib::Date, double>, std::allocator<std::pair<QuantLib::Date, double>>>::_Vector_impl" = type { %"struct.std::_Vector_base<std::pair<QuantLib::Date, double>, std::allocator<std::pair<QuantLib::Date, double>>>::_Vector_impl_data" }
%"struct.std::_Vector_base<std::pair<QuantLib::Date, double>, std::allocator<std::pair<QuantLib::Date, double>>>::_Vector_impl_data" = type { ptr, ptr, ptr }
%"class.__gnu_cxx::__normal_iterator" = type { ptr }
%"struct.std::pair" = type { %"class.QuantLib::Date", double }
%"class.std::reverse_iterator" = type { %"class.__gnu_cxx::__normal_iterator" }

; Function Attrs: mustprogress nounwind uwtable
define linkonce_odr noundef ptr @_ZNK9__gnu_cxx17__normal_iteratorIPSt4pairIN8QuantLib4DateEdESt6vectorIS4_SaIS4_EEEptEv(ptr noundef nonnull align 8 dereferenceable(8) %this) #1 comdat align 2 {
entry:
  %this.addr = alloca ptr, align 8
  store ptr %this, ptr %this.addr, align 8, !tbaa !3
  %this1 = load ptr, ptr %this.addr, align 8
  %_M_current = getelementptr inbounds nuw %"class.__gnu_cxx::__normal_iterator", ptr %this1, i32 0, i32 0
  %0 = load ptr, ptr %_M_current, align 8, !tbaa !32
  ret ptr %0
}

; Function Attrs: mustprogress nounwind uwtable
define linkonce_odr void @_ZN9__gnu_cxx17__normal_iteratorIPSt4pairIN8QuantLib4DateEdESt6vectorIS4_SaIS4_EEEC2ERKS5_(ptr noundef nonnull align 8 dereferenceable(8) %this, ptr noundef nonnull align 8 dereferenceable(8) %__i) unnamed_addr #1 comdat align 2 {
entry:
  %this.addr = alloca ptr, align 8
  %__i.addr = alloca ptr, align 8
  store ptr %this, ptr %this.addr, align 8, !tbaa !3
  store ptr %__i, ptr %__i.addr, align 8, !tbaa !3
  %this1 = load ptr, ptr %this.addr, align 8
  %_M_current = getelementptr inbounds nuw %"class.__gnu_cxx::__normal_iterator", ptr %this1, i32 0, i32 0
  %0 = load ptr, ptr %__i.addr, align 8, !tbaa !3
  %1 = load ptr, ptr %0, align 8, !tbaa !3
  store ptr %1, ptr %_M_current, align 8, !tbaa !32
  ret void
}

; Function Attrs: mustprogress nounwind uwtable
define linkonce_odr noundef ptr @_ZNSt16reverse_iteratorIN9__gnu_cxx17__normal_iteratorIPSt4pairIN8QuantLib4DateEdESt6vectorIS5_SaIS5_EEEEE13_S_to_pointerISA_EES6_T_(ptr %__t.coerce) #1 comdat align 2 {
entry:
  %__t = alloca %"class.__gnu_cxx::__normal_iterator", align 8
  %coerce.dive = getelementptr inbounds nuw %"class.__gnu_cxx::__normal_iterator", ptr %__t, i32 0, i32 0
  store ptr %__t.coerce, ptr %coerce.dive, align 8
  %call = call noundef ptr @_ZNK9__gnu_cxx17__normal_iteratorIPSt4pairIN8QuantLib4DateEdESt6vectorIS4_SaIS4_EEEptEv(ptr noundef nonnull align 8 dereferenceable(8) %__t) #13
  ret ptr %call
}

; Function Attrs: mustprogress nounwind uwtable
define linkonce_odr noundef nonnull align 8 dereferenceable(8) ptr @_ZN9__gnu_cxx17__normal_iteratorIPSt4pairIN8QuantLib4DateEdESt6vectorIS4_SaIS4_EEEmmEv(ptr noundef nonnull align 8 dereferenceable(8) %this) #1 comdat align 2 {
entry:
  %this.addr = alloca ptr, align 8
  store ptr %this, ptr %this.addr, align 8, !tbaa !3
  %this1 = load ptr, ptr %this.addr, align 8
  %_M_current = getelementptr inbounds nuw %"class.__gnu_cxx::__normal_iterator", ptr %this1, i32 0, i32 0
  %0 = load ptr, ptr %_M_current, align 8, !tbaa !32
  %incdec.ptr = getelementptr inbounds %"struct.std::pair", ptr %0, i32 -1
  store ptr %incdec.ptr, ptr %_M_current, align 8, !tbaa !32
  ret ptr %this1
}

; Function Attrs: mustprogress nounwind uwtable
define linkonce_odr void @_ZNSt16reverse_iteratorIN9__gnu_cxx17__normal_iteratorIPSt4pairIN8QuantLib4DateEdESt6vectorIS5_SaIS5_EEEEEC2ESA_(ptr noundef nonnull align 8 dereferenceable(8) %this, ptr %__x.coerce) unnamed_addr #1 comdat align 2 {
entry:
  %__x = alloca %"class.__gnu_cxx::__normal_iterator", align 8
  %this.addr = alloca ptr, align 8
  %coerce.dive = getelementptr inbounds nuw %"class.__gnu_cxx::__normal_iterator", ptr %__x, i32 0, i32 0
  store ptr %__x.coerce, ptr %coerce.dive, align 8
  store ptr %this, ptr %this.addr, align 8, !tbaa !3
  %this1 = load ptr, ptr %this.addr, align 8
  %current = getelementptr inbounds nuw %"class.std::reverse_iterator", ptr %this1, i32 0, i32 0
  call void @llvm.memcpy.p0.p0.i64(ptr align 8 %current, ptr align 8 %__x, i64 8, i1 false), !tbaa.struct !20
  ret void
}

; Function Attrs: mustprogress nounwind uwtable
define linkonce_odr ptr @_ZNSt6vectorISt4pairIN8QuantLib4DateEdESaIS3_EE3endEv(ptr noundef nonnull align 8 dereferenceable(24) %this) #1 comdat align 2 {
entry:
  %retval = alloca %"class.__gnu_cxx::__normal_iterator", align 8
  %this.addr = alloca ptr, align 8
  store ptr %this, ptr %this.addr, align 8, !tbaa !3
  %this1 = load ptr, ptr %this.addr, align 8
  %_M_impl = getelementptr inbounds nuw %"struct.std::_Vector_base", ptr %this1, i32 0, i32 0
  %_M_finish = getelementptr inbounds nuw %"struct.std::_Vector_base<std::pair<QuantLib::Date, double>, std::allocator<std::pair<QuantLib::Date, double>>>::_Vector_impl_data", ptr %_M_impl, i32 0, i32 1
  call void @_ZN9__gnu_cxx17__normal_iteratorIPSt4pairIN8QuantLib4DateEdESt6vectorIS4_SaIS4_EEEC2ERKS5_(ptr noundef nonnull align 8 dereferenceable(8) %retval, ptr noundef nonnull align 8 dereferenceable(8) %_M_finish) #13
  %coerce.dive = getelementptr inbounds nuw %"class.__gnu_cxx::__normal_iterator", ptr %retval, i32 0, i32 0
  %0 = load ptr, ptr %coerce.dive, align 8
  ret ptr %0
}

; Function Attrs: mustprogress uwtable
define linkonce_odr noundef ptr @_ZNKSt16reverse_iteratorIN9__gnu_cxx17__normal_iteratorIPSt4pairIN8QuantLib4DateEdESt6vectorIS5_SaIS5_EEEEEptEv(ptr noundef nonnull align 8 dereferenceable(8) %this) #0 comdat align 2 {
entry:
  %this.addr = alloca ptr, align 8
  %__tmp = alloca %"class.__gnu_cxx::__normal_iterator", align 8
  %agg.tmp = alloca %"class.__gnu_cxx::__normal_iterator", align 8
  store ptr %this, ptr %this.addr, align 8, !tbaa !3
  %this1 = load ptr, ptr %this.addr, align 8
  call void @llvm.lifetime.start.p0(i64 8, ptr %__tmp) #13
  %current = getelementptr inbounds nuw %"class.std::reverse_iterator", ptr %this1, i32 0, i32 0
  call void @llvm.memcpy.p0.p0.i64(ptr align 8 %__tmp, ptr align 8 %current, i64 8, i1 false), !tbaa.struct !20
  %call = call noundef nonnull align 8 dereferenceable(8) ptr @_ZN9__gnu_cxx17__normal_iteratorIPSt4pairIN8QuantLib4DateEdESt6vectorIS4_SaIS4_EEEmmEv(ptr noundef nonnull align 8 dereferenceable(8) %__tmp) #13
  call void @llvm.memcpy.p0.p0.i64(ptr align 8 %agg.tmp, ptr align 8 %__tmp, i64 8, i1 false), !tbaa.struct !20
  %coerce.dive = getelementptr inbounds nuw %"class.__gnu_cxx::__normal_iterator", ptr %agg.tmp, i32 0, i32 0
  %0 = load ptr, ptr %coerce.dive, align 8
  %call2 = call noundef ptr @_ZNSt16reverse_iteratorIN9__gnu_cxx17__normal_iteratorIPSt4pairIN8QuantLib4DateEdESt6vectorIS5_SaIS5_EEEEE13_S_to_pointerISA_EES6_T_(ptr %0)
  call void @llvm.lifetime.end.p0(i64 8, ptr %__tmp) #13
  ret ptr %call2
}

; Function Attrs: mustprogress nounwind uwtable
define linkonce_odr void @_ZNSt6vectorISt4pairIN8QuantLib4DateEdESaIS3_EE6rbeginEv(ptr dead_on_unwind noalias writable sret(%"class.std::reverse_iterator") align 8 %agg.result, ptr noundef nonnull align 8 dereferenceable(24) %this) #1 comdat align 2 {
entry:
  %result.ptr = alloca ptr, align 8
  %this.addr = alloca ptr, align 8
  %agg.tmp = alloca %"class.__gnu_cxx::__normal_iterator", align 8
  store ptr %agg.result, ptr %result.ptr, align 8
  store ptr %this, ptr %this.addr, align 8, !tbaa !3
  %this1 = load ptr, ptr %this.addr, align 8
  %call = call ptr @_ZNSt6vectorISt4pairIN8QuantLib4DateEdESaIS3_EE3endEv(ptr noundef nonnull align 8 dereferenceable(24) %this1) #13
  %coerce.dive = getelementptr inbounds nuw %"class.__gnu_cxx::__normal_iterator", ptr %agg.tmp, i32 0, i32 0
  store ptr %call, ptr %coerce.dive, align 8
  %coerce.dive2 = getelementptr inbounds nuw %"class.__gnu_cxx::__normal_iterator", ptr %agg.tmp, i32 0, i32 0
  %0 = load ptr, ptr %coerce.dive2, align 8
  call void @_ZNSt16reverse_iteratorIN9__gnu_cxx17__normal_iteratorIPSt4pairIN8QuantLib4DateEdESt6vectorIS5_SaIS5_EEEEEC2ESA_(ptr noundef nonnull align 8 dereferenceable(8) %agg.result, ptr %0) #13
  ret void
}

; Function Attrs: mustprogress uwtable
define noundef double @_ZN8QuantLib12NotionalPath4lossEv(ptr noundef nonnull align 8 dereferenceable(24) %this) #0 align 2 {
entry:
  %this.addr = alloca ptr, align 8
  %ref.tmp = alloca %"class.std::reverse_iterator", align 8
  store ptr %this, ptr %this.addr, align 8, !tbaa !3
  %this1 = load ptr, ptr %this.addr, align 8
  call void @llvm.lifetime.start.p0(i64 8, ptr %ref.tmp) #13
  %notionalRate_ = getelementptr inbounds nuw %"class.QuantLib::NotionalPath", ptr %this1, i32 0, i32 0
  call void @_ZNSt6vectorISt4pairIN8QuantLib4DateEdESaIS3_EE6rbeginEv(ptr dead_on_unwind writable sret(%"class.std::reverse_iterator") align 8 %ref.tmp, ptr noundef nonnull align 8 dereferenceable(24) %notionalRate_) #13
  %call = call noundef ptr @_ZNKSt16reverse_iteratorIN9__gnu_cxx17__normal_iteratorIPSt4pairIN8QuantLib4DateEdESt6vectorIS5_SaIS5_EEEEEptEv(ptr noundef nonnull align 8 dereferenceable(8) %ref.tmp)
  %second = getelementptr inbounds nuw %"struct.std::pair", ptr %call, i32 0, i32 1
  %0 = load double, ptr %second, align 8, !tbaa !17
  %sub = fsub double 1.000000e+00, %0
  call void @llvm.lifetime.end.p0(i64 8, ptr %ref.tmp) #13
  ret double %sub
}