; Function Attrs: mustprogress nofree norecurse nosync nounwind willreturn memory(read, inaccessiblemem: none) uwtable
define noundef double @_ZN8QuantLib12NotionalPath4lossEv(ptr nocapture noundef nonnull readonly align 8 dereferenceable(24) %this) local_unnamed_addr #3 align 2 {
entry:
  %_M_finish.i.i = getelementptr inbounds nuw i8, ptr %this, i64 8
  %0 = load ptr, ptr %_M_finish.i.i, align 8, !tbaa !3, !noalias !26
  %second = getelementptr inbounds i8, ptr %0, i64 -8
  %1 = load double, ptr %second, align 8, !tbaa !11
  %sub = fsub double 1.000000e+00, %1
  ret double %sub
}